target datalayout = "e-m:e-p270:32:32-p271:32:32-p272:64:64-i64:64-i128:128-f80:128-n8:16:32:64-S128"
target triple = "x86_64-pc-linux-gnu"

%struct.fasthash_state = type { i64, i64 }

; Function Attrs: inlinehint nounwind uwtable
define internal i64 @fasthash_mix(i64 noundef %0, i64 noundef %1) #3 {
  %3 = alloca i64, align 8
  %4 = alloca i64, align 8
  store i64 %0, ptr %3, align 8
  store i64 %1, ptr %4, align 8
  %5 = load i64, ptr %3, align 8
  %6 = lshr i64 %5, 23
  %7 = load i64, ptr %4, align 8
  %8 = add i64 %6, %7
  %9 = load i64, ptr %3, align 8
  %10 = xor i64 %9, %8
  store i64 %10, ptr %3, align 8
  %11 = load i64, ptr %3, align 8
  %12 = mul i64 %11, 2388976653695081527
  store i64 %12, ptr %3, align 8
  %13 = load i64, ptr %3, align 8
  %14 = lshr i64 %13, 47
  %15 = load i64, ptr %3, align 8
  %16 = xor i64 %15, %14
  store i64 %16, ptr %3, align 8
  %17 = load i64, ptr %3, align 8
  ret i64 %17
}

; Function Attrs: inlinehint nounwind uwtable
define internal void @fasthash_combine(ptr noundef %0) #3 {
  %2 = alloca ptr, align 8
  store ptr %0, ptr %2, align 8
  %3 = load ptr, ptr %2, align 8
  %4 = getelementptr inbounds nuw %struct.fasthash_state, ptr %3, i32 0, i32 0
  %5 = load i64, ptr %4, align 8
  %6 = call i64 @fasthash_mix(i64 noundef %5, i64 noundef 0)
  %7 = load ptr, ptr %2, align 8
  %8 = getelementptr inbounds nuw %struct.fasthash_state, ptr %7, i32 0, i32 1
  %9 = load i64, ptr %8, align 8
  %10 = xor i64 %9, %6
  store i64 %10, ptr %8, align 8
  %11 = load ptr, ptr %2, align 8
  %12 = getelementptr inbounds nuw %struct.fasthash_state, ptr %11, i32 0, i32 1
  %13 = load i64, ptr %12, align 8
  %14 = mul i64 %13, -8645972361240307355
  store i64 %14, ptr %12, align 8
  ret void
}

; Function Attrs: inlinehint nounwind uwtable
define internal i64 @fasthash_final64(ptr noundef %0, i64 noundef %1) #3 {
  %3 = alloca ptr, align 8
  %4 = alloca i64, align 8
  store ptr %0, ptr %3, align 8
  store i64 %1, ptr %4, align 8
  %5 = load ptr, ptr %3, align 8
  %6 = getelementptr inbounds nuw %struct.fasthash_state, ptr %5, i32 0, i32 1
  %7 = load i64, ptr %6, align 8
  %8 = load i64, ptr %4, align 8
  %9 = call i64 @fasthash_mix(i64 noundef %7, i64 noundef %8)
  ret i64 %9
}

; Function Attrs: inlinehint nounwind uwtable
define internal void @fasthash_accum(ptr noundef %0, ptr noundef %1, i64 noundef %2) #3 {
  %4 = alloca ptr, align 8
  %5 = alloca ptr, align 8
  %6 = alloca i64, align 8
  %7 = alloca i32, align 4
  %8 = alloca i32, align 4
  store ptr %0, ptr %4, align 8
  store ptr %1, ptr %5, align 8
  store i64 %2, ptr %6, align 8
  call void @llvm.lifetime.start.p0(i64 4, ptr %7) #10
  %9 = load ptr, ptr %4, align 8
  %10 = getelementptr inbounds nuw %struct.fasthash_state, ptr %9, i32 0, i32 0
  store i64 0, ptr %10, align 8
  %11 = load i64, ptr %6, align 8
  switch i64 %11, label %84 [
    i64 8, label %12
    i64 7, label %16
    i64 6, label %26
    i64 5, label %36
    i64 4, label %46
    i64 3, label %54
    i64 2, label %64
    i64 1, label %74
    i64 0, label %83
  ]

12:                                               ; preds = %3
  %13 = load ptr, ptr %4, align 8
  %14 = getelementptr inbounds nuw %struct.fasthash_state, ptr %13, i32 0, i32 0
  %15 = load ptr, ptr %5, align 8
  call void @llvm.memcpy.p0.p0.i64(ptr align 8 %14, ptr align 1 %15, i64 8, i1 false)
  br label %84

16:                                               ; preds = %3
  %17 = load ptr, ptr %5, align 8
  %18 = getelementptr inbounds i8, ptr %17, i64 6
  %19 = load i8, ptr %18, align 1
  %20 = sext i8 %19 to i64
  %21 = shl i64 %20, 48
  %22 = load ptr, ptr %4, align 8
  %23 = getelementptr inbounds nuw %struct.fasthash_state, ptr %22, i32 0, i32 0
  %24 = load i64, ptr %23, align 8
  %25 = or i64 %24, %21
  store i64 %25, ptr %23, align 8
  br label %26

26:                                               ; preds = %3, %16
  %27 = load ptr, ptr %5, align 8
  %28 = getelementptr inbounds i8, ptr %27, i64 5
  %29 = load i8, ptr %28, align 1
  %30 = sext i8 %29 to i64
  %31 = shl i64 %30, 40
  %32 = load ptr, ptr %4, align 8
  %33 = getelementptr inbounds nuw %struct.fasthash_state, ptr %32, i32 0, i32 0
  %34 = load i64, ptr %33, align 8
  %35 = or i64 %34, %31
  store i64 %35, ptr %33, align 8
  br label %36

36:                                               ; preds = %3, %26
  %37 = load ptr, ptr %5, align 8
  %38 = getelementptr inbounds i8, ptr %37, i64 4
  %39 = load i8, ptr %38, align 1
  %40 = sext i8 %39 to i64
  %41 = shl i64 %40, 32
  %42 = load ptr, ptr %4, align 8
  %43 = getelementptr inbounds nuw %struct.fasthash_state, ptr %42, i32 0, i32 0
  %44 = load i64, ptr %43, align 8
  %45 = or i64 %44, %41
  store i64 %45, ptr %43, align 8
  br label %46

46:                                               ; preds = %3, %36
  %47 = load ptr, ptr %5, align 8
  call void @llvm.memcpy.p0.p0.i64(ptr align 4 %7, ptr align 1 %47, i64 4, i1 false)
  %48 = load i32, ptr %7, align 4
  %49 = zext i32 %48 to i64
  %50 = load ptr, ptr %4, align 8
  %51 = getelementptr inbounds nuw %struct.fasthash_state, ptr %50, i32 0, i32 0
  %52 = load i64, ptr %51, align 8
  %53 = or i64 %52, %49
  store i64 %53, ptr %51, align 8
  br label %84

54:                                               ; preds = %3
  %55 = load ptr, ptr %5, align 8
  %56 = getelementptr inbounds i8, ptr %55, i64 2
  %57 = load i8, ptr %56, align 1
  %58 = sext i8 %57 to i64
  %59 = shl i64 %58, 16
  %60 = load ptr, ptr %4, align 8
  %61 = getelementptr inbounds nuw %struct.fasthash_state, ptr %60, i32 0, i32 0
  %62 = load i64, ptr %61, align 8
  %63 = or i64 %62, %59
  store i64 %63, ptr %61, align 8
  br label %64

64:                                               ; preds = %3, %54
  %65 = load ptr, ptr %5, align 8
  %66 = getelementptr inbounds i8, ptr %65, i64 1
  %67 = load i8, ptr %66, align 1
  %68 = sext i8 %67 to i64
  %69 = shl i64 %68, 8
  %70 = load ptr, ptr %4, align 8
  %71 = getelementptr inbounds nuw %struct.fasthash_state, ptr %70, i32 0, i32 0
  %72 = load i64, ptr %71, align 8
  %73 = or i64 %72, %69
  store i64 %73, ptr %71, align 8
  br label %74

74:                                               ; preds = %3, %64
  %75 = load ptr, ptr %5, align 8
  %76 = getelementptr inbounds i8, ptr %75, i64 0
  %77 = load i8, ptr %76, align 1
  %78 = sext i8 %77 to i64
  %79 = load ptr, ptr %4, align 8
  %80 = getelementptr inbounds nuw %struct.fasthash_state, ptr %79, i32 0, i32 0
  %81 = load i64, ptr %80, align 8
  %82 = or i64 %81, %78
  store i64 %82, ptr %80, align 8
  br label %84

83:                                               ; preds = %3
  store i32 1, ptr %8, align 4
  br label %86

84:                                               ; preds = %3, %74, %46, %12
  %85 = load ptr, ptr %4, align 8
  call void @fasthash_combine(ptr noundef %85)
  store i32 0, ptr %8, align 4
  br label %86

86:                                               ; preds = %84, %83
  call void @llvm.lifetime.end.p0(i64 4, ptr %7) #10
  %87 = load i32, ptr %8, align 4
  switch i32 %87, label %89 [
    i32 0, label %88
    i32 1, label %88
  ]

88:                                               ; preds = %86, %86
  ret void

89:                                               ; preds = %86
  unreachable
}

; Function Attrs: inlinehint nounwind uwtable
define internal void @fasthash_init(ptr noundef %0, i64 noundef %1) #3 {
  %3 = alloca ptr, align 8
  %4 = alloca i64, align 8
  store ptr %0, ptr %3, align 8
  store i64 %1, ptr %4, align 8
  %5 = load ptr, ptr %3, align 8
  call void @llvm.memset.p0.i64(ptr align 8 %5, i8 0, i64 16, i1 false)
  %6 = load i64, ptr %4, align 8
  %7 = xor i64 %6, -8645972361240307355
  %8 = load ptr, ptr %3, align 8
  %9 = getelementptr inbounds nuw %struct.fasthash_state, ptr %8, i32 0, i32 1
  store i64 %7, ptr %9, align 8
  ret void
}

; Function Attrs: inlinehint nounwind uwtable
define internal i32 @fasthash_reduce32(i64 noundef %0) #3 {
  %2 = alloca i64, align 8
  store i64 %0, ptr %2, align 8
  %3 = load i64, ptr %2, align 8
  %4 = load i64, ptr %2, align 8
  %5 = lshr i64 %4, 32
  %6 = sub i64 %3, %5
  %7 = trunc i64 %6 to i32
  ret i32 %7
}

; Function Attrs: inlinehint nounwind uwtable
define internal i64 @fasthash64(ptr noundef %0, i64 noundef %1, i64 noundef %2) #3 {
  %4 = alloca ptr, align 8
  %5 = alloca i64, align 8
  %6 = alloca i64, align 8
  %7 = alloca %struct.fasthash_state, align 8
  store ptr %0, ptr %4, align 8
  store i64 %1, ptr %5, align 8
  store i64 %2, ptr %6, align 8
  call void @llvm.lifetime.start.p0(i64 16, ptr %7) #10
  call void @fasthash_init(ptr noundef %7, i64 noundef 0)
  %8 = load i64, ptr %6, align 8
  %9 = load i64, ptr %5, align 8
  %10 = mul i64 %9, -8645972361240307355
  %11 = xor i64 %8, %10
  %12 = getelementptr inbounds nuw %struct.fasthash_state, ptr %7, i32 0, i32 1
  store i64 %11, ptr %12, align 8
  br label %13

13:                                               ; preds = %16, %3
  %14 = load i64, ptr %5, align 8
  %15 = icmp uge i64 %14, 8
  br i1 %15, label %16, label %22

16:                                               ; preds = %13
  %17 = load ptr, ptr %4, align 8
  call void @fasthash_accum(ptr noundef %7, ptr noundef %17, i64 noundef 8)
  %18 = load ptr, ptr %4, align 8
  %19 = getelementptr inbounds nuw i8, ptr %18, i64 8
  store ptr %19, ptr %4, align 8
  %20 = load i64, ptr %5, align 8
  %21 = sub i64 %20, 8
  store i64 %21, ptr %5, align 8
  br label %13, !llvm.loop !13

22:                                               ; preds = %13
  %23 = load ptr, ptr %4, align 8
  %24 = load i64, ptr %5, align 8
  call void @fasthash_accum(ptr noundef %7, ptr noundef %23, i64 noundef %24)
  %25 = call i64 @fasthash_final64(ptr noundef %7, i64 noundef 0)
  call void @llvm.lifetime.end.p0(i64 16, ptr %7) #10
  ret i64 %25
}

; Function Attrs: inlinehint nounwind uwtable
define internal i32 @fasthash32(ptr noundef %0, i64 noundef %1, i64 noundef %2) #3 {
  %4 = alloca ptr, align 8
  %5 = alloca i64, align 8
  %6 = alloca i64, align 8
  store ptr %0, ptr %4, align 8
  store i64 %1, ptr %5, align 8
  store i64 %2, ptr %6, align 8
  %7 = load ptr, ptr %4, align 8
  %8 = load i64, ptr %5, align 8
  %9 = load i64, ptr %6, align 8
  %10 = call i64 @fasthash64(ptr noundef %7, i64 noundef %8, i64 noundef %9)
  %11 = call i32 @fasthash_reduce32(i64 noundef %10)
  ret i32 %11
}

; Function Attrs: inlinehint nounwind uwtable
define internal i32 @pgstat_hash_hash_key(ptr noundef %0, i64 noundef %1, ptr noundef %2) #3 {
  %4 = alloca ptr, align 8
  %5 = alloca i64, align 8
  %6 = alloca ptr, align 8
  %7 = alloca ptr, align 8
  store ptr %0, ptr %4, align 8
  store i64 %1, ptr %5, align 8
  store ptr %2, ptr %6, align 8
  call void @llvm.lifetime.start.p0(i64 8, ptr %7) #10
  %8 = load ptr, ptr %4, align 8
  store ptr %8, ptr %7, align 8
  %9 = load ptr, ptr %7, align 8
  %10 = load i64, ptr %5, align 8
  %11 = call i32 @fasthash32(ptr noundef %9, i64 noundef %10, i64 noundef 0)
  call void @llvm.lifetime.end.p0(i64 8, ptr %7) #10
  ret i32 %11
}