; Function Attrs: inlinehint nofree norecurse nosync nounwind memory(argmem: read) uwtable
define internal i32 @pgstat_hash_hash_key(ptr noundef readonly captures(none) %0, i64 noundef %1, ptr readnone captures(none) %2) #6 {
  %.sroa.12.010.i.i = mul i64 %1, -8645972361240307355
  %4 = icmp ugt i64 %1, 7
  br i1 %4, label %.lr.ph.i.i, label %._crit_edge.i.i

.lr.ph.i.i:                                       ; preds = %3, %.lr.ph.i.i
  %.sroa.12.013.i.i = phi i64 [ %.sroa.12.0.i.i, %.lr.ph.i.i ], [ %.sroa.12.010.i.i, %3 ]
  %.012.i.i = phi ptr [ %12, %.lr.ph.i.i ], [ %0, %3 ]
  %.0711.i.i = phi i64 [ %13, %.lr.ph.i.i ], [ %1, %3 ]
  %5 = load i64, ptr %.012.i.i, align 1
  %6 = lshr i64 %5, 23
  %7 = xor i64 %6, %5
  %8 = mul i64 %7, 2388976653695081527
  %9 = lshr i64 %8, 47
  %10 = xor i64 %.sroa.12.013.i.i, %9
  %11 = xor i64 %10, %8
  %12 = getelementptr inbounds nuw i8, ptr %.012.i.i, i64 8
  %13 = add i64 %.0711.i.i, -8
  %.sroa.12.0.i.i = mul i64 %11, -8645972361240307355
  %14 = icmp ugt i64 %13, 7
  br i1 %14, label %.lr.ph.i.i, label %._crit_edge.i.i, !llvm.loop !13

._crit_edge.i.i:                                  ; preds = %.lr.ph.i.i, %3
  %.07.lcssa.i.i = phi i64 [ %1, %3 ], [ %13, %.lr.ph.i.i ]
  %.0.lcssa.i.i = phi ptr [ %0, %3 ], [ %12, %.lr.ph.i.i ]
  %.sroa.12.0.lcssa.i.i = phi i64 [ %.sroa.12.010.i.i, %3 ], [ %.sroa.12.0.i.i, %.lr.ph.i.i ]
  switch i64 %.07.lcssa.i.i, label %default.unreachable19.i.i.i [
    i64 0, label %fasthash32.exit
    i64 7, label %15
    i64 6, label %20
    i64 5, label %27
    i64 4, label %34
    i64 3, label %38
    i64 2, label %43
    i64 1, label %50
  ]

15:                                               ; preds = %._crit_edge.i.i
  %16 = getelementptr inbounds nuw i8, ptr %.0.lcssa.i.i, i64 6
  %17 = load i8, ptr %16, align 1
  %18 = sext i8 %17 to i64
  %19 = shl nsw i64 %18, 48
  br label %20

20:                                               ; preds = %15, %._crit_edge.i.i
  %21 = phi i64 [ %19, %15 ], [ 0, %._crit_edge.i.i ]
  %22 = getelementptr inbounds nuw i8, ptr %.0.lcssa.i.i, i64 5
  %23 = load i8, ptr %22, align 1
  %24 = sext i8 %23 to i64
  %25 = shl nsw i64 %24, 40
  %26 = or i64 %25, %21
  br label %27

27:                                               ; preds = %20, %._crit_edge.i.i
  %28 = phi i64 [ %26, %20 ], [ 0, %._crit_edge.i.i ]
  %29 = getelementptr inbounds nuw i8, ptr %.0.lcssa.i.i, i64 4
  %30 = load i8, ptr %29, align 1
  %31 = sext i8 %30 to i64
  %32 = shl nsw i64 %31, 32
  %33 = or i64 %32, %28
  br label %34

34:                                               ; preds = %27, %._crit_edge.i.i
  %35 = phi i64 [ %33, %27 ], [ 0, %._crit_edge.i.i ]
  %.0.copyload.i.i.i = load i32, ptr %.0.lcssa.i.i, align 1
  %36 = zext i32 %.0.copyload.i.i.i to i64
  %37 = or i64 %35, %36
  br label %55

38:                                               ; preds = %._crit_edge.i.i
  %39 = getelementptr inbounds nuw i8, ptr %.0.lcssa.i.i, i64 2
  %40 = load i8, ptr %39, align 1
  %41 = sext i8 %40 to i64
  %42 = shl nsw i64 %41, 16
  br label %43

43:                                               ; preds = %38, %._crit_edge.i.i
  %44 = phi i64 [ %42, %38 ], [ 0, %._crit_edge.i.i ]
  %45 = getelementptr inbounds nuw i8, ptr %.0.lcssa.i.i, i64 1
  %46 = load i8, ptr %45, align 1
  %47 = sext i8 %46 to i64
  %48 = shl nsw i64 %47, 8
  %49 = or i64 %48, %44
  br label %50

50:                                               ; preds = %43, %._crit_edge.i.i
  %51 = phi i64 [ %49, %43 ], [ 0, %._crit_edge.i.i ]
  %52 = load i8, ptr %.0.lcssa.i.i, align 1
  %53 = sext i8 %52 to i64
  %54 = or i64 %51, %53
  br label %55

default.unreachable19.i.i.i:                      ; preds = %._crit_edge.i.i
  unreachable

55:                                               ; preds = %50, %34
  %.sink.i.i.i = phi i64 [ %54, %50 ], [ %37, %34 ]
  %56 = lshr i64 %.sink.i.i.i, 23
  %57 = xor i64 %56, %.sink.i.i.i
  %58 = mul i64 %57, 2388976653695081527
  %59 = lshr i64 %58, 47
  %60 = xor i64 %.sroa.12.0.lcssa.i.i, %59
  %61 = xor i64 %60, %58
  %62 = mul i64 %61, -8645972361240307355
  br label %fasthash32.exit

fasthash32.exit:                                  ; preds = %._crit_edge.i.i, %55
  %.sroa.12.1.i.i = phi i64 [ %.sroa.12.0.lcssa.i.i, %._crit_edge.i.i ], [ %62, %55 ]
  %63 = lshr i64 %.sroa.12.1.i.i, 23
  %64 = xor i64 %63, %.sroa.12.1.i.i
  %65 = mul i64 %64, 2388976653695081527
  %66 = lshr i64 %65, 47
  %67 = xor i64 %66, %65
  %68 = lshr i64 %65, 32
  %69 = sub i64 %67, %68
  %70 = trunc i64 %69 to i32
  ret i32 %70
}